target datalayout = "e-m:e-p270:32:32-p271:32:32-p272:64:64-i64:64-i128:128-f80:128-n8:16:32:64-S128"
target triple = "x86_64-pc-linux-gnu"

%struct.rb_data_type_struct = type { ptr, %struct.anon, ptr, ptr, i64 }
%struct.anon = type { ptr, ptr, ptr, ptr, [1 x ptr] }
%struct.time_object = type { i64, %struct.vtm }
%struct.vtm = type { i64, i64, i64, i64, i64 }

@rb_eArgError = external global i64, align 8
@time_data_type = internal constant %struct.rb_data_type_struct { ptr @.str.96, %struct.anon { ptr @time_mark, ptr inttoptr (i64 -1 to ptr), ptr null, ptr null, [1 x ptr] zeroinitializer }, ptr null, ptr null, i64 291 }, align 8
@rb_eTypeError = external global i64, align 8
@.str.92 = private unnamed_addr constant [19 x i8] c"uninitialized %li\0B\00", align 1
@.str.119 = private unnamed_addr constant [19 x i8] c"invalid format: %s\00", align 1

; Function Attrs: nounwind sspstrong uwtable
define internal i64 @time_get_tm(i64 noundef %0, ptr noundef %1) #0 {
  %3 = alloca i64, align 8
  %4 = alloca i64, align 8
  %5 = alloca ptr, align 8
  store i64 %0, ptr %4, align 8, !tbaa !11
  store ptr %1, ptr %5, align 8, !tbaa !18
  %6 = load ptr, ptr %5, align 8, !tbaa !18
  %7 = getelementptr inbounds nuw %struct.time_object, ptr %6, i32 0, i32 1
  %8 = getelementptr inbounds nuw %struct.vtm, ptr %7, i32 0, i32 4
  %9 = load i64, ptr %8, align 8
  %10 = lshr i64 %9, 43
  %11 = and i64 %10, 7
  %12 = trunc i64 %11 to i32
  %13 = icmp eq i32 %12, 1
  br i1 %13, label %14, label %17

14:                                               ; preds = %2
  %15 = load i64, ptr %4, align 8, !tbaa !11
  %16 = call i64 @time_gmtime(i64 noundef %15)
  store i64 %16, ptr %3, align 8
  br label %32

17:                                               ; preds = %2
  %18 = load ptr, ptr %5, align 8, !tbaa !18
  %19 = getelementptr inbounds nuw %struct.time_object, ptr %18, i32 0, i32 1
  %20 = getelementptr inbounds nuw %struct.vtm, ptr %19, i32 0, i32 4
  %21 = load i64, ptr %20, align 8
  %22 = lshr i64 %21, 43
  %23 = and i64 %22, 7
  %24 = trunc i64 %23 to i32
  %25 = icmp eq i32 %24, 2
  br i1 %25, label %26, label %29

26:                                               ; preds = %17
  %27 = load i64, ptr %4, align 8, !tbaa !11
  %28 = call i64 @time_fixoff(i64 noundef %27)
  store i64 %28, ptr %3, align 8
  br label %32

29:                                               ; preds = %17
  %30 = load i64, ptr %4, align 8, !tbaa !11
  %31 = call i64 @time_localtime(i64 noundef %30)
  store i64 %31, ptr %3, align 8
  br label %32

32:                                               ; preds = %29, %26, %14
  %33 = load i64, ptr %3, align 8
  ret i64 %33
}

; Function Attrs: nounwind sspstrong uwtable
define internal ptr @get_timeval(i64 noundef %0) #0 {
  %2 = alloca i64, align 8
  %3 = alloca ptr, align 8
  store i64 %0, ptr %2, align 8, !tbaa !11
  call void @llvm.lifetime.start.p0(i64 8, ptr %3) #22
  %4 = load i64, ptr %2, align 8, !tbaa !11
  %5 = call ptr @rb_check_typeddata(i64 noundef %4, ptr noundef @time_data_type)
  store ptr %5, ptr %3, align 8, !tbaa !18
  %6 = load ptr, ptr %3, align 8, !tbaa !18
  %7 = getelementptr inbounds nuw %struct.time_object, ptr %6, i32 0, i32 1
  %8 = getelementptr inbounds nuw %struct.vtm, ptr %7, i32 0, i32 4
  %9 = load i64, ptr %8, align 8
  %10 = lshr i64 %9, 43
  %11 = and i64 %10, 7
  %12 = trunc i64 %11 to i32
  %13 = icmp ne i32 %12, 3
  br i1 %13, label %18, label %14

14:                                               ; preds = %1
  %15 = load i64, ptr @rb_eTypeError, align 8, !tbaa !11
  %16 = load i64, ptr %2, align 8, !tbaa !11
  %17 = call i64 @rb_obj_class(i64 noundef %16)
  call void (i64, ptr, ...) @rb_raise(i64 noundef %15, ptr noundef @.str.92, i64 noundef %17) #23
  unreachable

18:                                               ; preds = %1
  %19 = load ptr, ptr %3, align 8, !tbaa !18
  call void @llvm.lifetime.end.p0(i64 8, ptr %3) #22
  ret ptr %19
}

; Function Attrs: nounwind sspstrong uwtable
define internal i64 @strftime_cstr(ptr noundef %0, i64 noundef %1, i64 noundef %2, ptr noundef %3) #0 {
  %5 = alloca ptr, align 8
  %6 = alloca i64, align 8
  %7 = alloca i64, align 8
  %8 = alloca ptr, align 8
  %9 = alloca ptr, align 8
  %10 = alloca i64, align 8
  store ptr %0, ptr %5, align 8, !tbaa !25
  store i64 %1, ptr %6, align 8, !tbaa !11
  store i64 %2, ptr %7, align 8, !tbaa !11
  store ptr %3, ptr %8, align 8, !tbaa !54
  call void @llvm.lifetime.start.p0(i64 8, ptr %9) #22
  call void @llvm.lifetime.start.p0(i64 8, ptr %10) #22
  %11 = load i64, ptr %7, align 8, !tbaa !11
  %12 = call ptr @get_timeval(i64 noundef %11)
  store ptr %12, ptr %9, align 8, !tbaa !18
  br label %13

13:                                               ; preds = %4
  %14 = load ptr, ptr %9, align 8, !tbaa !18
  %15 = getelementptr inbounds nuw %struct.time_object, ptr %14, i32 0, i32 1
  %16 = getelementptr inbounds nuw %struct.vtm, ptr %15, i32 0, i32 4
  %17 = load i64, ptr %16, align 8
  %18 = lshr i64 %17, 46
  %19 = and i64 %18, 1
  %20 = trunc i64 %19 to i32
  %21 = icmp eq i32 %20, 0
  br i1 %21, label %22, label %26

22:                                               ; preds = %13
  %23 = load i64, ptr %7, align 8, !tbaa !11
  %24 = load ptr, ptr %9, align 8, !tbaa !18
  %25 = call i64 @time_get_tm(i64 noundef %23, ptr noundef %24)
  br label %26

26:                                               ; preds = %22, %13
  br label %27

27:                                               ; preds = %26
  br label %28

28:                                               ; preds = %27
  %29 = load ptr, ptr %5, align 8, !tbaa !25
  %30 = load i64, ptr %6, align 8, !tbaa !11
  %31 = load ptr, ptr %8, align 8, !tbaa !54
  %32 = load i64, ptr %7, align 8, !tbaa !11
  %33 = load ptr, ptr %9, align 8, !tbaa !18
  %34 = getelementptr inbounds nuw %struct.time_object, ptr %33, i32 0, i32 1
  %35 = load ptr, ptr %9, align 8, !tbaa !18
  %36 = getelementptr inbounds nuw %struct.time_object, ptr %35, i32 0, i32 0
  %37 = load i64, ptr %36, align 8, !tbaa !33
  %38 = load ptr, ptr %9, align 8, !tbaa !18
  %39 = getelementptr inbounds nuw %struct.time_object, ptr %38, i32 0, i32 1
  %40 = getelementptr inbounds nuw %struct.vtm, ptr %39, i32 0, i32 4
  %41 = load i64, ptr %40, align 8
  %42 = lshr i64 %41, 43
  %43 = and i64 %42, 7
  %44 = trunc i64 %43 to i32
  %45 = icmp eq i32 %44, 1
  %46 = zext i1 %45 to i32
  %47 = call i64 @rb_strftime_alloc(ptr noundef %29, i64 noundef %30, ptr noundef %31, i64 noundef %32, ptr noundef %34, i64 noundef %37, i32 noundef %46)
  store i64 %47, ptr %10, align 8, !tbaa !11
  %48 = load i64, ptr %10, align 8, !tbaa !11
  %49 = icmp ne i64 %48, 0
  br i1 %49, label %53, label %50

50:                                               ; preds = %28
  %51 = load i64, ptr @rb_eArgError, align 8, !tbaa !11
  %52 = load ptr, ptr %5, align 8, !tbaa !25
  call void (i64, ptr, ...) @rb_raise(i64 noundef %51, ptr noundef @.str.119, ptr noundef %52) #23
  unreachable

53:                                               ; preds = %28
  %54 = load i64, ptr %10, align 8, !tbaa !11
  call void @llvm.lifetime.end.p0(i64 8, ptr %10) #22
  call void @llvm.lifetime.end.p0(i64 8, ptr %9) #22
  ret i64 %54
}