; Function Attrs: nounwind sspstrong uwtable
define internal fastcc range(i64 1, 0) i64 @strftime_cstr(ptr noundef %0, i64 noundef range(i64 14, 22) %1, i64 noundef %2, ptr noundef nonnull %3) unnamed_addr #1 {
  %5 = tail call ptr @rb_check_typeddata(i64 noundef %2, ptr noundef nonnull @time_data_type) #21
  %6 = getelementptr inbounds nuw i8, ptr %5, i64 40
  %7 = load i64, ptr %6, align 8
  %8 = and i64 %7, 61572651155456
  %.not.i = icmp eq i64 %8, 26388279066624
  br i1 %.not.i, label %9, label %get_timeval.exit

9:                                                ; preds = %4
  %10 = load i64, ptr @rb_eTypeError, align 8, !tbaa !11
  %11 = tail call i64 @rb_obj_class(i64 noundef %2) #21
  tail call void (i64, ptr, ...) @rb_raise(i64 noundef %10, ptr noundef nonnull @.str.92, i64 noundef %11) #22
  unreachable

get_timeval.exit:                                 ; preds = %4
  %12 = getelementptr inbounds nuw i8, ptr %5, i64 8
  %13 = and i64 %7, 70368744177664
  %14 = icmp eq i64 %13, 0
  br i1 %14, label %15, label %time_get_tm.exit

15:                                               ; preds = %get_timeval.exit
  %16 = lshr i64 %7, 43
  %17 = trunc nuw nsw i64 %16 to i32
  %18 = and i32 %17, 7
  switch i32 %18, label %23 [
    i32 1, label %19
    i32 2, label %21
  ]

19:                                               ; preds = %15
  %20 = tail call i64 @time_gmtime(i64 noundef %2)
  br label %time_get_tm.exit

21:                                               ; preds = %15
  %22 = tail call fastcc i64 @time_fixoff(i64 noundef %2)
  br label %time_get_tm.exit

23:                                               ; preds = %15
  %24 = tail call fastcc i64 @time_localtime(i64 noundef %2)
  br label %time_get_tm.exit

time_get_tm.exit:                                 ; preds = %23, %21, %19, %get_timeval.exit
  %25 = load i64, ptr %5, align 8, !tbaa !25
  %26 = load i64, ptr %6, align 8
  %27 = and i64 %26, 61572651155456
  %28 = icmp eq i64 %27, 8796093022208
  %29 = zext i1 %28 to i32
  %30 = tail call fastcc i64 @rb_strftime_alloc(ptr noundef %0, i64 noundef %1, ptr noundef nonnull %3, i64 noundef %2, ptr noundef nonnull %12, i64 noundef %25, i32 noundef %29)
  %.not = icmp eq i64 %30, 0
  br i1 %.not, label %31, label %33

31:                                               ; preds = %time_get_tm.exit
  %32 = load i64, ptr @rb_eArgError, align 8, !tbaa !11
  tail call void (i64, ptr, ...) @rb_raise(i64 noundef %32, ptr noundef nonnull @.str.119, ptr noundef %0) #22
  unreachable

33:                                               ; preds = %time_get_tm.exit
  ret i64 %30
}